; Function Attrs: nofree norecurse nosync nounwind memory(argmem: read) uwtable
define dso_local range(i64 0, -1) i64 @Curl_hash_str(ptr noundef readonly %0, i64 noundef %1, i64 noundef %2) #4 {
  %4 = getelementptr inbounds nuw i8, ptr %0, i64 %1
  %.not = icmp eq i64 %1, 0
  br i1 %.not, label %._crit_edge, label %.lr.ph

.lr.ph:                                           ; preds = %3, %.lr.ph
  %.013 = phi ptr [ %5, %.lr.ph ], [ %0, %3 ]
  %.01112 = phi i64 [ %9, %.lr.ph ], [ 5381, %3 ]
  %5 = getelementptr inbounds nuw i8, ptr %.013, i64 1
  %6 = load i8, ptr %.013, align 1, !tbaa !31
  %7 = sext i8 %6 to i64
  %8 = mul i64 %.01112, 33
  %9 = xor i64 %8, %7
  %10 = icmp ult ptr %5, %4
  br i1 %10, label %.lr.ph, label %._crit_edge, !llvm.loop !32

._crit_edge:                                      ; preds = %.lr.ph, %3
  %.011.lcssa = phi i64 [ 5381, %3 ], [ %9, %.lr.ph ]
  %11 = urem i64 %.011.lcssa, %2
  ret i64 %11
}